target datalayout = "e-m:e-p270:32:32-p271:32:32-p272:64:64-i64:64-i128:128-f80:128-n8:16:32:64-S128"
target triple = "x86_64-unknown-linux-gnu"

%"struct.node::AssertionInfo" = type { ptr, ptr, ptr }
%"class.std::unique_ptr.314" = type { %"struct.std::__uniq_ptr_data.315" }
%"struct.std::__uniq_ptr_data.315" = type { %"class.std::__uniq_ptr_impl.316" }
%"class.std::__uniq_ptr_impl.316" = type { %"class.std::tuple.317" }
%"class.std::tuple.317" = type { %"struct.std::_Tuple_impl.318" }
%"struct.std::_Tuple_impl.318" = type { %"struct.std::_Head_base.321" }
%"struct.std::_Head_base.321" = type { ptr }
%"class.std::basic_string_view" = type { i64, ptr }
%"class.node::MaybeStackBuffer" = type { i64, i64, ptr, [1024 x i16] }
%"class.v8_inspector::StringView" = type { i8, i64, %union.anon.322 }
%union.anon.322 = type { ptr }

@_ZZN4node16MaybeStackBufferIDsLm1024EE25AllocateSufficientStorageEmE4args = linkonce_odr dso_local constant %"struct.node::AssertionInfo" { ptr @.str.22, ptr @.str.23, ptr @.str.24 }, comdat, align 8

; Function Attrs: mustprogress nounwind uwtable
define linkonce_odr dso_local noundef i64 @_ZNK4node16MaybeStackBufferIDsLm1024EE8capacityEv(ptr noundef nonnull align 8 dereferenceable(2072) %this) #4 comdat align 2 {
entry:
  %this.addr = alloca ptr, align 8
  store ptr %this, ptr %this.addr, align 8
  %this1 = load ptr, ptr %this.addr, align 8
  %capacity_ = getelementptr inbounds %"class.node::MaybeStackBuffer", ptr %this1, i32 0, i32 1
  %0 = load i64, ptr %capacity_, align 8
  ret i64 %0
}

; Function Attrs: mustprogress nounwind uwtable
define linkonce_odr dso_local noundef zeroext i1 @_ZNK4node16MaybeStackBufferIDsLm1024EE13IsInvalidatedEv(ptr noundef nonnull align 8 dereferenceable(2072) %this) #4 comdat align 2 {
entry:
  %this.addr = alloca ptr, align 8
  store ptr %this, ptr %this.addr, align 8
  %this1 = load ptr, ptr %this.addr, align 8
  %buf_ = getelementptr inbounds %"class.node::MaybeStackBuffer", ptr %this1, i32 0, i32 2
  %0 = load ptr, ptr %buf_, align 8
  %cmp = icmp eq ptr %0, null
  ret i1 %cmp
}

; Function Attrs: mustprogress nounwind uwtable
define linkonce_odr dso_local noundef i64 @_ZN4node9arraysizeIDsLm1024EEEmRAT0__KT_(ptr noundef nonnull align 2 dereferenceable(2048) %0) #4 comdat {
entry:
  %.addr = alloca ptr, align 8
  store ptr %0, ptr %.addr, align 8
  ret i64 1024
}

; Function Attrs: mustprogress nounwind uwtable
define linkonce_odr dso_local noundef zeroext i1 @_ZNK4node16MaybeStackBufferIDsLm1024EE11IsAllocatedEv(ptr noundef nonnull align 8 dereferenceable(2072) %this) #4 comdat align 2 {
entry:
  %this.addr = alloca ptr, align 8
  store ptr %this, ptr %this.addr, align 8
  %this1 = load ptr, ptr %this.addr, align 8
  %call = call noundef zeroext i1 @_ZNK4node16MaybeStackBufferIDsLm1024EE13IsInvalidatedEv(ptr noundef nonnull align 8 dereferenceable(2072) %this1)
  br i1 %call, label %land.end, label %land.rhs

land.rhs:                                         ; preds = %entry
  %buf_ = getelementptr inbounds %"class.node::MaybeStackBuffer", ptr %this1, i32 0, i32 2
  %0 = load ptr, ptr %buf_, align 8
  %buf_st_ = getelementptr inbounds %"class.node::MaybeStackBuffer", ptr %this1, i32 0, i32 3
  %arraydecay = getelementptr inbounds [1024 x i16], ptr %buf_st_, i64 0, i64 0
  %cmp = icmp ne ptr %0, %arraydecay
  br label %land.end

land.end:                                         ; preds = %land.rhs, %entry
  %1 = phi i1 [ false, %entry ], [ %cmp, %land.rhs ]
  ret i1 %1
}

; Function Attrs: mustprogress nounwind uwtable
define linkonce_odr dso_local void @_ZN4node16MaybeStackBufferIDsLm1024EE25AllocateSufficientStorageEm(ptr noundef nonnull align 8 dereferenceable(2072) %this, i64 noundef %storage) #4 comdat align 2 {
entry:
  %this.addr = alloca ptr, align 8
  %storage.addr = alloca i64, align 8
  %was_allocated = alloca i8, align 1
  %allocated_ptr = alloca ptr, align 8
  store ptr %this, ptr %this.addr, align 8
  store i64 %storage, ptr %storage.addr, align 8
  %this1 = load ptr, ptr %this.addr, align 8
  br label %do.body

do.body:                                          ; preds = %entry
  %call = call noundef zeroext i1 @_ZNK4node16MaybeStackBufferIDsLm1024EE13IsInvalidatedEv(ptr noundef nonnull align 8 dereferenceable(2072) %this1)
  %lnot = xor i1 %call, true
  %lnot2 = xor i1 %lnot, true
  %lnot3 = xor i1 %lnot2, true
  %lnot4 = xor i1 %lnot3, true
  br i1 %lnot4, label %if.then, label %if.end

if.then:                                          ; preds = %do.body
  br label %do.body5

do.body5:                                         ; preds = %if.then
  call void @_ZN4node6AssertERKNS_13AssertionInfoE(ptr noundef nonnull align 8 dereferenceable(24) @_ZZN4node16MaybeStackBufferIDsLm1024EE25AllocateSufficientStorageEmE4args)
  call void @abort() #13
  unreachable

do.end:                                           ; No predecessors!
  br label %if.end

if.end:                                           ; preds = %do.end, %do.body
  br label %do.end6

do.end6:                                          ; preds = %if.end
  %0 = load i64, ptr %storage.addr, align 8
  %call7 = call noundef i64 @_ZNK4node16MaybeStackBufferIDsLm1024EE8capacityEv(ptr noundef nonnull align 8 dereferenceable(2072) %this1)
  %cmp = icmp ugt i64 %0, %call7
  br i1 %cmp, label %if.then8, label %if.end18

if.then8:                                         ; preds = %do.end6
  %call9 = call noundef zeroext i1 @_ZNK4node16MaybeStackBufferIDsLm1024EE11IsAllocatedEv(ptr noundef nonnull align 8 dereferenceable(2072) %this1)
  %frombool = zext i1 %call9 to i8
  store i8 %frombool, ptr %was_allocated, align 1
  %1 = load i8, ptr %was_allocated, align 1
  %tobool = trunc i8 %1 to i1
  br i1 %tobool, label %cond.true, label %cond.false

cond.true:                                        ; preds = %if.then8
  %buf_ = getelementptr inbounds %"class.node::MaybeStackBuffer", ptr %this1, i32 0, i32 2
  %2 = load ptr, ptr %buf_, align 8
  br label %cond.end

cond.false:                                       ; preds = %if.then8
  br label %cond.end

cond.end:                                         ; preds = %cond.false, %cond.true
  %cond = phi ptr [ %2, %cond.true ], [ null, %cond.false ]
  store ptr %cond, ptr %allocated_ptr, align 8
  %3 = load ptr, ptr %allocated_ptr, align 8
  %4 = load i64, ptr %storage.addr, align 8
  %call10 = call noundef ptr @_ZN4node7ReallocIDsEEPT_S2_m(ptr noundef %3, i64 noundef %4)
  %buf_11 = getelementptr inbounds %"class.node::MaybeStackBuffer", ptr %this1, i32 0, i32 2
  store ptr %call10, ptr %buf_11, align 8
  %5 = load i64, ptr %storage.addr, align 8
  %capacity_ = getelementptr inbounds %"class.node::MaybeStackBuffer", ptr %this1, i32 0, i32 1
  store i64 %5, ptr %capacity_, align 8
  %6 = load i8, ptr %was_allocated, align 1
  %tobool12 = trunc i8 %6 to i1
  br i1 %tobool12, label %if.end17, label %land.lhs.true

land.lhs.true:                                    ; preds = %cond.end
  %length_ = getelementptr inbounds %"class.node::MaybeStackBuffer", ptr %this1, i32 0, i32 0
  %7 = load i64, ptr %length_, align 8
  %cmp13 = icmp ugt i64 %7, 0
  br i1 %cmp13, label %if.then14, label %if.end17

if.then14:                                        ; preds = %land.lhs.true
  %buf_15 = getelementptr inbounds %"class.node::MaybeStackBuffer", ptr %this1, i32 0, i32 2
  %8 = load ptr, ptr %buf_15, align 8
  %buf_st_ = getelementptr inbounds %"class.node::MaybeStackBuffer", ptr %this1, i32 0, i32 3
  %arraydecay = getelementptr inbounds [1024 x i16], ptr %buf_st_, i64 0, i64 0
  %length_16 = getelementptr inbounds %"class.node::MaybeStackBuffer", ptr %this1, i32 0, i32 0
  %9 = load i64, ptr %length_16, align 8
  %mul = mul i64 %9, 2
  call void @llvm.memcpy.p0.p0.i64(ptr align 2 %8, ptr align 8 %arraydecay, i64 %mul, i1 false)
  br label %if.end17

if.end17:                                         ; preds = %if.then14, %land.lhs.true, %cond.end
  br label %if.end18

if.end18:                                         ; preds = %if.end17, %do.end6
  %10 = load i64, ptr %storage.addr, align 8
  %length_19 = getelementptr inbounds %"class.node::MaybeStackBuffer", ptr %this1, i32 0, i32 0
  store i64 %10, ptr %length_19, align 8
  ret void
}

; Function Attrs: mustprogress nounwind uwtable
define linkonce_odr dso_local void @_ZN4node16MaybeStackBufferIDsLm1024EEC2Ev(ptr noundef nonnull align 8 dereferenceable(2072) %this) unnamed_addr #4 comdat align 2 {
entry:
  %this.addr = alloca ptr, align 8
  store ptr %this, ptr %this.addr, align 8
  %this1 = load ptr, ptr %this.addr, align 8
  %length_ = getelementptr inbounds %"class.node::MaybeStackBuffer", ptr %this1, i32 0, i32 0
  store i64 0, ptr %length_, align 8
  %capacity_ = getelementptr inbounds %"class.node::MaybeStackBuffer", ptr %this1, i32 0, i32 1
  %buf_st_ = getelementptr inbounds %"class.node::MaybeStackBuffer", ptr %this1, i32 0, i32 3
  %call = call noundef i64 @_ZN4node9arraysizeIDsLm1024EEEmRAT0__KT_(ptr noundef nonnull align 2 dereferenceable(2048) %buf_st_)
  store i64 %call, ptr %capacity_, align 8
  %buf_ = getelementptr inbounds %"class.node::MaybeStackBuffer", ptr %this1, i32 0, i32 2
  %buf_st_2 = getelementptr inbounds %"class.node::MaybeStackBuffer", ptr %this1, i32 0, i32 3
  %arraydecay = getelementptr inbounds [1024 x i16], ptr %buf_st_2, i64 0, i64 0
  store ptr %arraydecay, ptr %buf_, align 8
  %buf_3 = getelementptr inbounds %"class.node::MaybeStackBuffer", ptr %this1, i32 0, i32 2
  %0 = load ptr, ptr %buf_3, align 8
  %arrayidx = getelementptr inbounds i16, ptr %0, i64 0
  store i16 0, ptr %arrayidx, align 2
  ret void
}

; Function Attrs: mustprogress nounwind uwtable
define linkonce_odr dso_local void @_ZN4node16MaybeStackBufferIDsLm1024EED2Ev(ptr noundef nonnull align 8 dereferenceable(2072) %this) unnamed_addr #4 comdat align 2 {
entry:
  %this.addr = alloca ptr, align 8
  store ptr %this, ptr %this.addr, align 8
  %this1 = load ptr, ptr %this.addr, align 8
  %call = call noundef zeroext i1 @_ZNK4node16MaybeStackBufferIDsLm1024EE11IsAllocatedEv(ptr noundef nonnull align 8 dereferenceable(2072) %this1)
  br i1 %call, label %if.then, label %if.end

if.then:                                          ; preds = %entry
  %buf_ = getelementptr inbounds %"class.node::MaybeStackBuffer", ptr %this1, i32 0, i32 2
  %0 = load ptr, ptr %buf_, align 8
  call void @free(ptr noundef %0) #3
  br label %if.end

if.end:                                           ; preds = %if.then, %entry
  ret void
}

; Function Attrs: mustprogress nounwind uwtable
define linkonce_odr dso_local void @_ZN12v8_inspector10StringViewC2EPKtm(ptr noundef nonnull align 8 dereferenceable(24) %this, ptr noundef %characters, i64 noundef %length) unnamed_addr #4 comdat align 2 {
entry:
  %this.addr = alloca ptr, align 8
  %characters.addr = alloca ptr, align 8
  %length.addr = alloca i64, align 8
  store ptr %this, ptr %this.addr, align 8
  store ptr %characters, ptr %characters.addr, align 8
  store i64 %length, ptr %length.addr, align 8
  %this1 = load ptr, ptr %this.addr, align 8
  %m_is8Bit = getelementptr inbounds %"class.v8_inspector::StringView", ptr %this1, i32 0, i32 0
  store i8 0, ptr %m_is8Bit, align 8
  %m_length = getelementptr inbounds %"class.v8_inspector::StringView", ptr %this1, i32 0, i32 1
  %0 = load i64, ptr %length.addr, align 8
  store i64 %0, ptr %m_length, align 8
  %1 = getelementptr inbounds %"class.v8_inspector::StringView", ptr %this1, i32 0, i32 2
  %2 = load ptr, ptr %characters.addr, align 8
  store ptr %2, ptr %1, align 8
  ret void
}

; Function Attrs: mustprogress nounwind uwtable
define linkonce_odr dso_local noundef ptr @_ZN4node16MaybeStackBufferIDsLm1024EE3outEv(ptr noundef nonnull align 8 dereferenceable(2072) %this) #4 comdat align 2 {
entry:
  %this.addr = alloca ptr, align 8
  store ptr %this, ptr %this.addr, align 8
  %this1 = load ptr, ptr %this.addr, align 8
  %buf_ = getelementptr inbounds %"class.node::MaybeStackBuffer", ptr %this1, i32 0, i32 2
  %0 = load ptr, ptr %buf_, align 8
  ret ptr %0
}

; Function Attrs: mustprogress nounwind uwtable
define linkonce_odr dso_local void @_ZN4node16MaybeStackBufferIDsLm1024EEC2Em(ptr noundef nonnull align 8 dereferenceable(2072) %this, i64 noundef %storage) unnamed_addr #4 comdat align 2 {
entry:
  %this.addr = alloca ptr, align 8
  %storage.addr = alloca i64, align 8
  store ptr %this, ptr %this.addr, align 8
  store i64 %storage, ptr %storage.addr, align 8
  %this1 = load ptr, ptr %this.addr, align 8
  call void @_ZN4node16MaybeStackBufferIDsLm1024EEC2Ev(ptr noundef nonnull align 8 dereferenceable(2072) %this1)
  %0 = load i64, ptr %storage.addr, align 8
  call void @_ZN4node16MaybeStackBufferIDsLm1024EE25AllocateSufficientStorageEm(ptr noundef nonnull align 8 dereferenceable(2072) %this1, i64 noundef %0)
  ret void
}

; Function Attrs: mustprogress nounwind uwtable
define linkonce_odr dso_local noundef i64 @_ZNKSt17basic_string_viewIcSt11char_traitsIcEE6lengthEv(ptr noundef nonnull align 8 dereferenceable(16) %this) #4 comdat align 2 {
entry:
  %this.addr = alloca ptr, align 8
  store ptr %this, ptr %this.addr, align 8
  %this1 = load ptr, ptr %this.addr, align 8
  %_M_len = getelementptr inbounds %"class.std::basic_string_view", ptr %this1, i32 0, i32 0
  %0 = load i64, ptr %_M_len, align 8
  ret i64 %0
}

; Function Attrs: mustprogress nounwind uwtable
define linkonce_odr dso_local noundef ptr @_ZNKSt17basic_string_viewIcSt11char_traitsIcEE4dataEv(ptr noundef nonnull align 8 dereferenceable(16) %this) #4 comdat align 2 {
entry:
  %this.addr = alloca ptr, align 8
  store ptr %this, ptr %this.addr, align 8
  %this1 = load ptr, ptr %this.addr, align 8
  %_M_str = getelementptr inbounds %"class.std::basic_string_view", ptr %this1, i32 0, i32 1
  %0 = load ptr, ptr %_M_str, align 8
  ret ptr %0
}

; Function Attrs: mustprogress nounwind uwtable
define dso_local void @_ZN4node9inspector16Utf8ToStringViewESt17basic_string_viewIcSt11char_traitsIcEE(ptr noalias sret(%"class.std::unique_ptr.314") align 8 %agg.result, i64 %message.coerce0, ptr %message.coerce1) #4 {
entry:
  %result.ptr = alloca ptr, align 8
  %message = alloca %"class.std::basic_string_view", align 8
  %expected_u16_length = alloca i64, align 8
  %buffer = alloca %"class.node::MaybeStackBuffer", align 8
  %utf16_length = alloca i64, align 8
  %view = alloca %"class.v8_inspector::StringView", align 8
  %agg.tmp = alloca %"class.v8_inspector::StringView", align 8
  store ptr %agg.result, ptr %result.ptr, align 8
  %0 = getelementptr inbounds { i64, ptr }, ptr %message, i32 0, i32 0
  store i64 %message.coerce0, ptr %0, align 8
  %1 = getelementptr inbounds { i64, ptr }, ptr %message, i32 0, i32 1
  store ptr %message.coerce1, ptr %1, align 8
  %call = call noundef ptr @_ZNKSt17basic_string_viewIcSt11char_traitsIcEE4dataEv(ptr noundef nonnull align 8 dereferenceable(16) %message) #3
  %call1 = call noundef i64 @_ZNKSt17basic_string_viewIcSt11char_traitsIcEE6lengthEv(ptr noundef nonnull align 8 dereferenceable(16) %message) #3
  %call2 = call noundef i64 @_ZN7simdutf22utf16_length_from_utf8EPKcm(ptr noundef %call, i64 noundef %call1) #3
  store i64 %call2, ptr %expected_u16_length, align 8
  %2 = load i64, ptr %expected_u16_length, align 8
  call void @_ZN4node16MaybeStackBufferIDsLm1024EEC2Em(ptr noundef nonnull align 8 dereferenceable(2072) %buffer, i64 noundef %2)
  %call3 = call noundef ptr @_ZNKSt17basic_string_viewIcSt11char_traitsIcEE4dataEv(ptr noundef nonnull align 8 dereferenceable(16) %message) #3
  %call4 = call noundef i64 @_ZNKSt17basic_string_viewIcSt11char_traitsIcEE6lengthEv(ptr noundef nonnull align 8 dereferenceable(16) %message) #3
  %call5 = call noundef ptr @_ZN4node16MaybeStackBufferIDsLm1024EE3outEv(ptr noundef nonnull align 8 dereferenceable(2072) %buffer)
  %call6 = call noundef i64 @_ZN7simdutf21convert_utf8_to_utf16EPKcmPDs(ptr noundef %call3, i64 noundef %call4, ptr noundef %call5) #3
  store i64 %call6, ptr %utf16_length, align 8
  %call7 = call noundef ptr @_ZN4node16MaybeStackBufferIDsLm1024EE3outEv(ptr noundef nonnull align 8 dereferenceable(2072) %buffer)
  %3 = load i64, ptr %utf16_length, align 8
  call void @_ZN12v8_inspector10StringViewC2EPKtm(ptr noundef nonnull align 8 dereferenceable(24) %view, ptr noundef %call7, i64 noundef %3)
  call void @llvm.memcpy.p0.p0.i64(ptr align 8 %agg.tmp, ptr align 8 %view, i64 24, i1 false)
  call void @_ZN12v8_inspector12StringBuffer6createENS_10StringViewE(ptr sret(%"class.std::unique_ptr.314") align 8 %agg.result, ptr noundef byval(%"class.v8_inspector::StringView") align 8 %agg.tmp)
  call void @_ZN4node16MaybeStackBufferIDsLm1024EED2Ev(ptr noundef nonnull align 8 dereferenceable(2072) %buffer) #3
  ret void
}