; Function Attrs: mustprogress nounwind uwtable
define dso_local void @_ZN4node9inspector16Utf8ToStringViewESt17basic_string_viewIcSt11char_traitsIcEE(ptr noalias sret(%"class.std::unique_ptr.314") align 8 %agg.result, i64 %message.coerce0, ptr %message.coerce1) local_unnamed_addr #3 {
entry:
  %buffer = alloca %"class.node::MaybeStackBuffer", align 8
  %agg.tmp = alloca %"class.v8_inspector::StringView", align 8
  %call2 = tail call noundef i64 @_ZN7simdutf22utf16_length_from_utf8EPKcm(ptr noundef %message.coerce1, i64 noundef %message.coerce0) #20
  store i64 0, ptr %buffer, align 8
  %capacity_.i.i = getelementptr inbounds i8, ptr %buffer, i64 8
  %buf_st_.i.i = getelementptr inbounds i8, ptr %buffer, i64 24
  store i64 1024, ptr %capacity_.i.i, align 8
  %buf_.i.i = getelementptr inbounds i8, ptr %buffer, i64 16
  store ptr %buf_st_.i.i, ptr %buf_.i.i, align 8
  store i16 0, ptr %buf_st_.i.i, align 8
  %cmp.i.i = icmp ugt i64 %call2, 1024
  br i1 %cmp.i.i, label %land.lhs.true.i.i, label %_ZN4node16MaybeStackBufferIDsLm1024EEC2Em.exit

land.lhs.true.i.i:                                ; preds = %entry
  %call10.i.i = call noundef ptr @_ZN4node7ReallocIDsEEPT_S2_m(ptr noundef null, i64 noundef %call2)
  store ptr %call10.i.i, ptr %buf_.i.i, align 8
  store i64 %call2, ptr %capacity_.i.i, align 8
  %0 = load i64, ptr %buffer, align 8
  %cmp13.not.i.i = icmp eq i64 %0, 0
  br i1 %cmp13.not.i.i, label %_ZN4node16MaybeStackBufferIDsLm1024EEC2Em.exit, label %if.then14.i.i

if.then14.i.i:                                    ; preds = %land.lhs.true.i.i
  %mul.i.i = shl i64 %0, 1
  call void @llvm.memcpy.p0.p0.i64(ptr align 2 %call10.i.i, ptr nonnull align 8 %buf_st_.i.i, i64 %mul.i.i, i1 false)
  %.pre = load ptr, ptr %buf_.i.i, align 8
  br label %_ZN4node16MaybeStackBufferIDsLm1024EEC2Em.exit

_ZN4node16MaybeStackBufferIDsLm1024EEC2Em.exit:   ; preds = %entry, %land.lhs.true.i.i, %if.then14.i.i
  %1 = phi ptr [ %buf_st_.i.i, %entry ], [ %call10.i.i, %land.lhs.true.i.i ], [ %.pre, %if.then14.i.i ]
  store i64 %call2, ptr %buffer, align 8
  %call6 = call noundef i64 @_ZN7simdutf21convert_utf8_to_utf16EPKcmPDs(ptr noundef %message.coerce1, i64 noundef %message.coerce0, ptr noundef %1) #20
  %2 = load ptr, ptr %buf_.i.i, align 8
  store i8 0, ptr %agg.tmp, align 8
  %view.sroa.25.0.agg.tmp.sroa_idx = getelementptr inbounds i8, ptr %agg.tmp, i64 8
  store i64 %call6, ptr %view.sroa.25.0.agg.tmp.sroa_idx, align 8
  %view.sroa.3.0.agg.tmp.sroa_idx = getelementptr inbounds i8, ptr %agg.tmp, i64 16
  store ptr %2, ptr %view.sroa.3.0.agg.tmp.sroa_idx, align 8
  call void @_ZN12v8_inspector12StringBuffer6createENS_10StringViewE(ptr sret(%"class.std::unique_ptr.314") align 8 %agg.result, ptr noundef nonnull byval(%"class.v8_inspector::StringView") align 8 %agg.tmp) #20
  %3 = load ptr, ptr %buf_.i.i, align 8
  %cmp.i.i.i = icmp ne ptr %3, null
  %cmp.i.i4 = icmp ne ptr %3, %buf_st_.i.i
  %4 = and i1 %cmp.i.i.i, %cmp.i.i4
  br i1 %4, label %if.then.i, label %_ZN4node16MaybeStackBufferIDsLm1024EED2Ev.exit

if.then.i:                                        ; preds = %_ZN4node16MaybeStackBufferIDsLm1024EEC2Em.exit
  call void @free(ptr noundef nonnull %3) #20
  br label %_ZN4node16MaybeStackBufferIDsLm1024EED2Ev.exit

_ZN4node16MaybeStackBufferIDsLm1024EED2Ev.exit:   ; preds = %_ZN4node16MaybeStackBufferIDsLm1024EEC2Em.exit, %if.then.i
  ret void
}